; Function Attrs: norecurse nounwind uwtable
define internal void @_ZN3gmx10PropagatorILNS_16IntegrationStageE4EE3runILNS_24NumVelocityScalingValuesE2ELNS_31ParrinelloRahmanVelocityScalingE2ELS4_2ELNS_24NumPositionScalingValuesE0EEEvv.omp_outlined(ptr noalias nocapture noundef readonly %0, ptr noalias nocapture readnone %1, ptr nocapture noundef nonnull readonly align 4 dereferenceable(4) %2, ptr nocapture noundef nonnull readonly align 4 dereferenceable(4) %3, ptr nocapture noundef readonly %4, ptr nocapture nonnull readnone align 4 %5, ptr nocapture noundef nonnull readonly align 8 dereferenceable(8) %6) #7 personality ptr @__gxx_personality_v0 {
  %8 = alloca i32, align 4
  %9 = alloca i32, align 4
  %10 = alloca i32, align 4
  %11 = alloca i32, align 4
  %12 = alloca i32, align 4
  %13 = alloca i32, align 4
  %14 = load i32, ptr %2, align 4
  %15 = icmp sgt i32 %14, 0
  br i1 %15, label %16, label %61

16:                                               ; preds = %7
  %17 = add nsw i32 %14, -1
  store i32 0, ptr %8, align 4
  store i32 %17, ptr %9, align 4
  store i32 1, ptr %10, align 4
  store i32 0, ptr %11, align 4
  %18 = load i32, ptr %0, align 4
  call void @__kmpc_for_static_init_4(ptr nonnull @1, i32 %18, i32 34, ptr nonnull %11, ptr nonnull %8, ptr nonnull %9, ptr nonnull %10, i32 1, i32 1)
  %19 = load i32, ptr %9, align 4
  %20 = call i32 @llvm.smin.i32(i32 %19, i32 %17)
  store i32 %20, ptr %9, align 4
  %21 = load i32, ptr %8, align 4
  %.not24 = icmp sgt i32 %21, %20
  br i1 %.not24, label %._crit_edge28, label %.lr.ph27

.lr.ph27:                                         ; preds = %16
  %22 = getelementptr inbounds i8, ptr %4, i64 32
  %23 = getelementptr inbounds i8, ptr %4, i64 184
  br label %24

24:                                               ; preds = %.lr.ph27, %._crit_edge
  %.025 = phi i32 [ %21, %.lr.ph27 ], [ %59, %._crit_edge ]
  store i32 0, ptr %12, align 4
  store i32 0, ptr %13, align 4
  %25 = load i32, ptr %2, align 4
  %26 = load i32, ptr %3, align 4
  invoke void @_Z18getThreadAtomRangeiiiPiS_(i32 noundef %25, i32 noundef %.025, i32 noundef %26, ptr noundef nonnull %12, ptr noundef nonnull %13)
          to label %27 unwind label %50

27:                                               ; preds = %24
  %28 = load i32, ptr %12, align 4
  %29 = load i32, ptr %13, align 4
  %30 = icmp slt i32 %28, %29
  br i1 %30, label %.lr.ph.preheader, label %._crit_edge

.lr.ph.preheader:                                 ; preds = %27
  %31 = sext i32 %28 to i64
  br label %.lr.ph

.lr.ph:                                           ; preds = %.lr.ph.preheader, %_ZN3gmxL15scaleVelocitiesILNS_24NumVelocityScalingValuesE2EEEvifPA3_f.exit
  %indvars.iv = phi i64 [ %31, %.lr.ph.preheader ], [ %indvars.iv.next, %_ZN3gmxL15scaleVelocitiesILNS_24NumVelocityScalingValuesE2EEEvifPA3_f.exit ]
  %32 = load ptr, ptr %23, align 8
  %33 = load ptr, ptr %32, align 8
  %34 = getelementptr inbounds i8, ptr %33, i64 448
  %35 = load ptr, ptr %34, align 8
  %36 = getelementptr inbounds i16, ptr %35, i64 %indvars.iv
  %37 = load i16, ptr %36, align 2
  %38 = zext i16 %37 to i64
  %39 = load ptr, ptr %22, align 8
  %40 = getelementptr inbounds float, ptr %39, i64 %38
  %41 = load float, ptr %40, align 4
  %42 = load ptr, ptr %6, align 8
  br label %43

43:                                               ; preds = %43, %.lr.ph
  %indvars.iv.i = phi i64 [ 0, %.lr.ph ], [ %indvars.iv.next.i, %43 ]
  %44 = getelementptr inbounds [3 x float], ptr %42, i64 %indvars.iv, i64 %indvars.iv.i
  %45 = load float, ptr %44, align 4, !alias.scope !844
  %46 = fmul float %41, %45
  store float %46, ptr %44, align 4, !alias.scope !844
  %indvars.iv.next.i = add nuw nsw i64 %indvars.iv.i, 1
  %exitcond.not.i = icmp eq i64 %indvars.iv.next.i, 3
  br i1 %exitcond.not.i, label %_ZN3gmxL15scaleVelocitiesILNS_24NumVelocityScalingValuesE2EEEvifPA3_f.exit, label %43, !llvm.loop !847

_ZN3gmxL15scaleVelocitiesILNS_24NumVelocityScalingValuesE2EEEvifPA3_f.exit: ; preds = %43
  %indvars.iv.next = add nsw i64 %indvars.iv, 1
  %47 = load i32, ptr %13, align 4
  %48 = sext i32 %47 to i64
  %49 = icmp slt i64 %indvars.iv.next, %48
  br i1 %49, label %.lr.ph, label %._crit_edge, !llvm.loop !848

50:                                               ; preds = %24
  %51 = landingpad { ptr, i32 }
          catch ptr @_ZTISt9exception
          catch ptr null
  %52 = extractvalue { ptr, i32 } %51, 0
  %53 = extractvalue { ptr, i32 } %51, 1
  %54 = call i32 @llvm.eh.typeid.for(ptr nonnull @_ZTISt9exception) #8
  %55 = icmp eq i32 %53, %54
  br i1 %55, label %56, label %65

56:                                               ; preds = %50
  %57 = call ptr @__cxa_begin_catch(ptr %52) #8
  invoke void @_ZN3gmx28processExceptionAsFatalErrorERKSt9exception(ptr noundef nonnull align 8 dereferenceable(8) %57) #22
          to label %58 unwind label %62

58:                                               ; preds = %56
  unreachable

._crit_edge:                                      ; preds = %_ZN3gmxL15scaleVelocitiesILNS_24NumVelocityScalingValuesE2EEEvifPA3_f.exit, %27
  %59 = add nsw i32 %.025, 1
  %60 = load i32, ptr %9, align 4
  %.not.not = icmp slt i32 %.025, %60
  br i1 %.not.not, label %24, label %._crit_edge28

._crit_edge28:                                    ; preds = %._crit_edge, %16
  call void @__kmpc_for_static_fini(ptr nonnull @1, i32 %18)
  br label %61

61:                                               ; preds = %._crit_edge28, %7
  ret void

62:                                               ; preds = %56
  %63 = landingpad { ptr, i32 }
          catch ptr null
  %64 = extractvalue { ptr, i32 } %63, 0
  call void @__clang_call_terminate(ptr %64) #23
  unreachable

65:                                               ; preds = %50
  call void @__clang_call_terminate(ptr %52) #23
  unreachable
}